target datalayout = "e-m:e-p270:32:32-p271:32:32-p272:64:64-i64:64-i128:128-f80:128-n8:16:32:64-S128"
target triple = "x86_64-pc-linux-gnu"

%struct.Kit_DsdMan_t_ = type { i32, i32, ptr, ptr, ptr, ptr, ptr }
%struct.Vec_Ptr_t_ = type { i32, i32, ptr }
%struct.Kit_DsdNtk_t_ = type { i16, i16, i16, i16, ptr, ptr, ptr }
%struct.Kit_DsdObj_t_ = type { i32, [0 x i16] }

; Function Attrs: inlinehint nounwind uwtable
define internal ptr @Kit_DsdNtkObj(ptr noundef %0, i32 noundef %1) #4 {
  %3 = alloca ptr, align 8
  %4 = alloca i32, align 4
  store ptr %0, ptr %3, align 8, !tbaa !37
  store i32 %1, ptr %4, align 4, !tbaa !3
  %5 = load i32, ptr %4, align 4, !tbaa !3
  %6 = load ptr, ptr %3, align 8, !tbaa !37
  %7 = getelementptr inbounds nuw %struct.Kit_DsdNtk_t_, ptr %6, i32 0, i32 0
  %8 = load i16, ptr %7, align 8, !tbaa !41
  %9 = zext i16 %8 to i32
  %10 = icmp slt i32 %5, %9
  br i1 %10, label %11, label %12

11:                                               ; preds = %2
  br label %25

12:                                               ; preds = %2
  %13 = load ptr, ptr %3, align 8, !tbaa !37
  %14 = getelementptr inbounds nuw %struct.Kit_DsdNtk_t_, ptr %13, i32 0, i32 6
  %15 = load ptr, ptr %14, align 8, !tbaa !47
  %16 = load i32, ptr %4, align 4, !tbaa !3
  %17 = load ptr, ptr %3, align 8, !tbaa !37
  %18 = getelementptr inbounds nuw %struct.Kit_DsdNtk_t_, ptr %17, i32 0, i32 0
  %19 = load i16, ptr %18, align 8, !tbaa !41
  %20 = zext i16 %19 to i32
  %21 = sub nsw i32 %16, %20
  %22 = sext i32 %21 to i64
  %23 = getelementptr inbounds ptr, ptr %15, i64 %22
  %24 = load ptr, ptr %23, align 8, !tbaa !39
  br label %25

25:                                               ; preds = %12, %11
  %26 = phi ptr [ null, %11 ], [ %24, %12 ]
  ret ptr %26
}

; Function Attrs: inlinehint nounwind uwtable
define internal i32 @Kit_TruthWordNum(i32 noundef %0) #4 {
  %2 = alloca i32, align 4
  store i32 %0, ptr %2, align 4, !tbaa !3
  %3 = load i32, ptr %2, align 4, !tbaa !3
  %4 = icmp sle i32 %3, 5
  br i1 %4, label %5, label %6

5:                                                ; preds = %1
  br label %10

6:                                                ; preds = %1
  %7 = load i32, ptr %2, align 4, !tbaa !3
  %8 = sub nsw i32 %7, 5
  %9 = shl i32 1, %8
  br label %10

10:                                               ; preds = %6, %5
  %11 = phi i32 [ 1, %5 ], [ %9, %6 ]
  ret i32 %11
}

; Function Attrs: inlinehint nounwind uwtable
define internal i32 @Kit_DsdLitSupport(ptr noundef %0, i32 noundef %1) #4 {
  %3 = alloca ptr, align 8
  %4 = alloca i32, align 4
  %5 = alloca i32, align 4
  store ptr %0, ptr %3, align 8, !tbaa !37
  store i32 %1, ptr %4, align 4, !tbaa !3
  call void @llvm.lifetime.start.p0(i64 4, ptr %5) #9
  %6 = load i32, ptr %4, align 4, !tbaa !3
  %7 = call i32 @Abc_Lit2Var(i32 noundef %6)
  store i32 %7, ptr %5, align 4, !tbaa !3
  %8 = load ptr, ptr %3, align 8, !tbaa !37
  %9 = getelementptr inbounds nuw %struct.Kit_DsdNtk_t_, ptr %8, i32 0, i32 5
  %10 = load ptr, ptr %9, align 8, !tbaa !50
  %11 = icmp ne ptr %10, null
  br i1 %11, label %12, label %37

12:                                               ; preds = %2
  %13 = load i32, ptr %5, align 4, !tbaa !3
  %14 = load ptr, ptr %3, align 8, !tbaa !37
  %15 = getelementptr inbounds nuw %struct.Kit_DsdNtk_t_, ptr %14, i32 0, i32 0
  %16 = load i16, ptr %15, align 8, !tbaa !41
  %17 = zext i16 %16 to i32
  %18 = icmp slt i32 %13, %17
  br i1 %18, label %19, label %22

19:                                               ; preds = %12
  %20 = load i32, ptr %5, align 4, !tbaa !3
  %21 = shl i32 1, %20
  br label %35

22:                                               ; preds = %12
  %23 = load ptr, ptr %3, align 8, !tbaa !37
  %24 = getelementptr inbounds nuw %struct.Kit_DsdNtk_t_, ptr %23, i32 0, i32 5
  %25 = load ptr, ptr %24, align 8, !tbaa !50
  %26 = load i32, ptr %5, align 4, !tbaa !3
  %27 = load ptr, ptr %3, align 8, !tbaa !37
  %28 = getelementptr inbounds nuw %struct.Kit_DsdNtk_t_, ptr %27, i32 0, i32 0
  %29 = load i16, ptr %28, align 8, !tbaa !41
  %30 = zext i16 %29 to i32
  %31 = sub nsw i32 %26, %30
  %32 = sext i32 %31 to i64
  %33 = getelementptr inbounds i32, ptr %25, i64 %32
  %34 = load i32, ptr %33, align 4, !tbaa !3
  br label %35

35:                                               ; preds = %22, %19
  %36 = phi i32 [ %21, %19 ], [ %34, %22 ]
  br label %38

37:                                               ; preds = %2
  br label %38

38:                                               ; preds = %37, %35
  %39 = phi i32 [ %36, %35 ], [ 0, %37 ]
  call void @llvm.lifetime.end.p0(i64 4, ptr %5) #9
  ret i32 %39
}

; Function Attrs: inlinehint nounwind uwtable
define internal ptr @Kit_DsdNtkRoot(ptr noundef %0) #4 {
  %2 = alloca ptr, align 8
  store ptr %0, ptr %2, align 8, !tbaa !37
  %3 = load ptr, ptr %2, align 8, !tbaa !37
  %4 = load ptr, ptr %2, align 8, !tbaa !37
  %5 = getelementptr inbounds nuw %struct.Kit_DsdNtk_t_, ptr %4, i32 0, i32 3
  %6 = load i16, ptr %5, align 2, !tbaa !60
  %7 = zext i16 %6 to i32
  %8 = call i32 @Abc_Lit2Var(i32 noundef %7)
  %9 = call ptr @Kit_DsdNtkObj(ptr noundef %3, i32 noundef %8)
  ret ptr %9
}

; Function Attrs: inlinehint nounwind uwtable
define internal void @Kit_TruthNot(ptr noundef %0, ptr noundef %1, i32 noundef %2) #4 {
  %4 = alloca ptr, align 8
  %5 = alloca ptr, align 8
  %6 = alloca i32, align 4
  %7 = alloca i32, align 4
  store ptr %0, ptr %4, align 8, !tbaa !25
  store ptr %1, ptr %5, align 8, !tbaa !25
  store i32 %2, ptr %6, align 4, !tbaa !3
  call void @llvm.lifetime.start.p0(i64 4, ptr %7) #9
  %8 = load i32, ptr %6, align 4, !tbaa !3
  %9 = call i32 @Kit_TruthWordNum(i32 noundef %8)
  %10 = sub nsw i32 %9, 1
  store i32 %10, ptr %7, align 4, !tbaa !3
  br label %11

11:                                               ; preds = %25, %3
  %12 = load i32, ptr %7, align 4, !tbaa !3
  %13 = icmp sge i32 %12, 0
  br i1 %13, label %14, label %28

14:                                               ; preds = %11
  %15 = load ptr, ptr %5, align 8, !tbaa !25
  %16 = load i32, ptr %7, align 4, !tbaa !3
  %17 = sext i32 %16 to i64
  %18 = getelementptr inbounds i32, ptr %15, i64 %17
  %19 = load i32, ptr %18, align 4, !tbaa !3
  %20 = xor i32 %19, -1
  %21 = load ptr, ptr %4, align 8, !tbaa !25
  %22 = load i32, ptr %7, align 4, !tbaa !3
  %23 = sext i32 %22 to i64
  %24 = getelementptr inbounds i32, ptr %21, i64 %23
  store i32 %20, ptr %24, align 4, !tbaa !3
  br label %25

25:                                               ; preds = %14
  %26 = load i32, ptr %7, align 4, !tbaa !3
  %27 = add nsw i32 %26, -1
  store i32 %27, ptr %7, align 4, !tbaa !3
  br label %11, !llvm.loop !68

28:                                               ; preds = %11
  call void @llvm.lifetime.end.p0(i64 4, ptr %7) #9
  ret void
}

; Function Attrs: inlinehint nounwind uwtable
define internal i32 @Abc_LitIsCompl(i32 noundef %0) #4 {
  %2 = alloca i32, align 4
  store i32 %0, ptr %2, align 4, !tbaa !3
  %3 = load i32, ptr %2, align 4, !tbaa !3
  %4 = and i32 %3, 1
  ret i32 %4
}

; Function Attrs: inlinehint nounwind uwtable
define internal i32 @Abc_Lit2Var(i32 noundef %0) #4 {
  %2 = alloca i32, align 4
  store i32 %0, ptr %2, align 4, !tbaa !3
  %3 = load i32, ptr %2, align 4, !tbaa !3
  %4 = ashr i32 %3, 1
  ret i32 %4
}

; Function Attrs: inlinehint nounwind uwtable
define internal void @Kit_TruthCopy(ptr noundef %0, ptr noundef %1, i32 noundef %2) #4 {
  %4 = alloca ptr, align 8
  %5 = alloca ptr, align 8
  %6 = alloca i32, align 4
  %7 = alloca i32, align 4
  store ptr %0, ptr %4, align 8, !tbaa !25
  store ptr %1, ptr %5, align 8, !tbaa !25
  store i32 %2, ptr %6, align 4, !tbaa !3
  call void @llvm.lifetime.start.p0(i64 4, ptr %7) #9
  %8 = load i32, ptr %6, align 4, !tbaa !3
  %9 = call i32 @Kit_TruthWordNum(i32 noundef %8)
  %10 = sub nsw i32 %9, 1
  store i32 %10, ptr %7, align 4, !tbaa !3
  br label %11

11:                                               ; preds = %24, %3
  %12 = load i32, ptr %7, align 4, !tbaa !3
  %13 = icmp sge i32 %12, 0
  br i1 %13, label %14, label %27

14:                                               ; preds = %11
  %15 = load ptr, ptr %5, align 8, !tbaa !25
  %16 = load i32, ptr %7, align 4, !tbaa !3
  %17 = sext i32 %16 to i64
  %18 = getelementptr inbounds i32, ptr %15, i64 %17
  %19 = load i32, ptr %18, align 4, !tbaa !3
  %20 = load ptr, ptr %4, align 8, !tbaa !25
  %21 = load i32, ptr %7, align 4, !tbaa !3
  %22 = sext i32 %21 to i64
  %23 = getelementptr inbounds i32, ptr %20, i64 %22
  store i32 %19, ptr %23, align 4, !tbaa !3
  br label %24

24:                                               ; preds = %14
  %25 = load i32, ptr %7, align 4, !tbaa !3
  %26 = add nsw i32 %25, -1
  store i32 %26, ptr %7, align 4, !tbaa !3
  br label %11, !llvm.loop !69

27:                                               ; preds = %11
  call void @llvm.lifetime.end.p0(i64 4, ptr %7) #9
  ret void
}

; Function Attrs: inlinehint nounwind uwtable
define internal ptr @Vec_PtrEntry(ptr noundef %0, i32 noundef %1) #4 {
  %3 = alloca ptr, align 8
  %4 = alloca i32, align 4
  store ptr %0, ptr %3, align 8, !tbaa !21
  store i32 %1, ptr %4, align 4, !tbaa !3
  %5 = load ptr, ptr %3, align 8, !tbaa !21
  %6 = getelementptr inbounds nuw %struct.Vec_Ptr_t_, ptr %5, i32 0, i32 2
  %7 = load ptr, ptr %6, align 8, !tbaa !22
  %8 = load i32, ptr %4, align 4, !tbaa !3
  %9 = sext i32 %8 to i64
  %10 = getelementptr inbounds ptr, ptr %7, i64 %9
  %11 = load ptr, ptr %10, align 8, !tbaa !24
  ret ptr %11
}

; Function Attrs: nounwind uwtable
define i32 @Kit_DsdGetSupports(ptr noundef %0) #0 {
  %2 = alloca ptr, align 8
  %3 = alloca ptr, align 8
  %4 = alloca i32, align 4
  store ptr %0, ptr %2, align 8, !tbaa !37
  call void @llvm.lifetime.start.p0(i64 8, ptr %3) #9
  call void @llvm.lifetime.start.p0(i64 4, ptr %4) #9
  %5 = load ptr, ptr %2, align 8, !tbaa !37
  %6 = getelementptr inbounds nuw %struct.Kit_DsdNtk_t_, ptr %5, i32 0, i32 2
  %7 = load i16, ptr %6, align 4, !tbaa !45
  %8 = zext i16 %7 to i64
  %9 = mul i64 4, %8
  %10 = call noalias ptr @malloc(i64 noundef %9) #10
  %11 = load ptr, ptr %2, align 8, !tbaa !37
  %12 = getelementptr inbounds nuw %struct.Kit_DsdNtk_t_, ptr %11, i32 0, i32 5
  store ptr %10, ptr %12, align 8, !tbaa !50
  %13 = load ptr, ptr %2, align 8, !tbaa !37
  %14 = call ptr @Kit_DsdNtkRoot(ptr noundef %13)
  store ptr %14, ptr %3, align 8, !tbaa !39
  %15 = load ptr, ptr %3, align 8, !tbaa !39
  %16 = load i32, ptr %15, align 4
  %17 = lshr i32 %16, 6
  %18 = and i32 %17, 7
  %19 = icmp eq i32 %18, 1
  br i1 %19, label %20, label %25

20:                                               ; preds = %1
  %21 = load ptr, ptr %2, align 8, !tbaa !37
  %22 = getelementptr inbounds nuw %struct.Kit_DsdNtk_t_, ptr %21, i32 0, i32 5
  %23 = load ptr, ptr %22, align 8, !tbaa !50
  %24 = getelementptr inbounds i32, ptr %23, i64 0
  store i32 0, ptr %24, align 4, !tbaa !3
  store i32 0, ptr %4, align 4, !tbaa !3
  br label %25

25:                                               ; preds = %20, %1
  %26 = load ptr, ptr %3, align 8, !tbaa !39
  %27 = load i32, ptr %26, align 4
  %28 = lshr i32 %27, 6
  %29 = and i32 %28, 7
  %30 = icmp eq i32 %29, 2
  br i1 %30, label %31, label %43

31:                                               ; preds = %25
  %32 = load ptr, ptr %2, align 8, !tbaa !37
  %33 = load ptr, ptr %3, align 8, !tbaa !39
  %34 = getelementptr inbounds nuw %struct.Kit_DsdObj_t_, ptr %33, i32 0, i32 1
  %35 = getelementptr inbounds [0 x i16], ptr %34, i64 0, i64 0
  %36 = load i16, ptr %35, align 4, !tbaa !58
  %37 = zext i16 %36 to i32
  %38 = call i32 @Kit_DsdLitSupport(ptr noundef %32, i32 noundef %37)
  %39 = load ptr, ptr %2, align 8, !tbaa !37
  %40 = getelementptr inbounds nuw %struct.Kit_DsdNtk_t_, ptr %39, i32 0, i32 5
  %41 = load ptr, ptr %40, align 8, !tbaa !50
  %42 = getelementptr inbounds i32, ptr %41, i64 0
  store i32 %38, ptr %42, align 4, !tbaa !3
  store i32 %38, ptr %4, align 4, !tbaa !3
  br label %50

43:                                               ; preds = %25
  %44 = load ptr, ptr %2, align 8, !tbaa !37
  %45 = load ptr, ptr %2, align 8, !tbaa !37
  %46 = getelementptr inbounds nuw %struct.Kit_DsdNtk_t_, ptr %45, i32 0, i32 3
  %47 = load i16, ptr %46, align 2, !tbaa !60
  %48 = zext i16 %47 to i32
  %49 = call i32 @Kit_DsdGetSupports_rec(ptr noundef %44, i32 noundef %48)
  store i32 %49, ptr %4, align 4, !tbaa !3
  br label %50

50:                                               ; preds = %43, %31
  %51 = load i32, ptr %4, align 4, !tbaa !3
  call void @llvm.lifetime.end.p0(i64 4, ptr %4) #9
  call void @llvm.lifetime.end.p0(i64 8, ptr %3) #9
  ret i32 %51
}

; Function Attrs: nounwind uwtable
define ptr @Kit_DsdTruthComputeOne(ptr noundef %0, ptr noundef %1, i32 noundef %2) #0 {
  %4 = alloca ptr, align 8
  %5 = alloca ptr, align 8
  %6 = alloca i32, align 4
  %7 = alloca ptr, align 8
  %8 = alloca i32, align 4
  store ptr %0, ptr %4, align 8, !tbaa !7
  store ptr %1, ptr %5, align 8, !tbaa !37
  store i32 %2, ptr %6, align 4, !tbaa !3
  call void @llvm.lifetime.start.p0(i64 8, ptr %7) #9
  call void @llvm.lifetime.start.p0(i64 4, ptr %8) #9
  %9 = load i32, ptr %6, align 4, !tbaa !3
  %10 = icmp ne i32 %9, 0
  br i1 %10, label %11, label %14

11:                                               ; preds = %3
  %12 = load ptr, ptr %5, align 8, !tbaa !37
  %13 = call i32 @Kit_DsdGetSupports(ptr noundef %12)
  br label %14

14:                                               ; preds = %11, %3
  store i32 0, ptr %8, align 4, !tbaa !3
  br label %15

15:                                               ; preds = %36, %14
  %16 = load i32, ptr %8, align 4, !tbaa !3
  %17 = load ptr, ptr %5, align 8, !tbaa !37
  %18 = getelementptr inbounds nuw %struct.Kit_DsdNtk_t_, ptr %17, i32 0, i32 0
  %19 = load i16, ptr %18, align 8, !tbaa !41
  %20 = zext i16 %19 to i32
  %21 = icmp slt i32 %16, %20
  br i1 %21, label %22, label %39

22:                                               ; preds = %15
  %23 = load ptr, ptr %4, align 8, !tbaa !7
  %24 = getelementptr inbounds nuw %struct.Kit_DsdMan_t_, ptr %23, i32 0, i32 3
  %25 = load ptr, ptr %24, align 8, !tbaa !17
  %26 = load i32, ptr %8, align 4, !tbaa !3
  %27 = call ptr @Vec_PtrEntry(ptr noundef %25, i32 noundef %26)
  %28 = load ptr, ptr %4, align 8, !tbaa !7
  %29 = getelementptr inbounds nuw %struct.Kit_DsdMan_t_, ptr %28, i32 0, i32 2
  %30 = load ptr, ptr %29, align 8, !tbaa !16
  %31 = load i32, ptr %8, align 4, !tbaa !3
  %32 = call ptr @Vec_PtrEntry(ptr noundef %30, i32 noundef %31)
  %33 = load ptr, ptr %4, align 8, !tbaa !7
  %34 = getelementptr inbounds nuw %struct.Kit_DsdMan_t_, ptr %33, i32 0, i32 0
  %35 = load i32, ptr %34, align 8, !tbaa !10
  call void @Kit_TruthCopy(ptr noundef %27, ptr noundef %32, i32 noundef %35)
  br label %36

36:                                               ; preds = %22
  %37 = load i32, ptr %8, align 4, !tbaa !3
  %38 = add nsw i32 %37, 1
  store i32 %38, ptr %8, align 4, !tbaa !3
  br label %15, !llvm.loop !83

39:                                               ; preds = %15
  %40 = load ptr, ptr %4, align 8, !tbaa !7
  %41 = load ptr, ptr %5, align 8, !tbaa !37
  %42 = load ptr, ptr %5, align 8, !tbaa !37
  %43 = getelementptr inbounds nuw %struct.Kit_DsdNtk_t_, ptr %42, i32 0, i32 3
  %44 = load i16, ptr %43, align 2, !tbaa !60
  %45 = zext i16 %44 to i32
  %46 = call i32 @Abc_Lit2Var(i32 noundef %45)
  %47 = load i32, ptr %6, align 4, !tbaa !3
  %48 = call ptr @Kit_DsdTruthComputeNodeOne_rec(ptr noundef %40, ptr noundef %41, i32 noundef %46, i32 noundef %47)
  store ptr %48, ptr %7, align 8, !tbaa !25
  %49 = load ptr, ptr %5, align 8, !tbaa !37
  %50 = getelementptr inbounds nuw %struct.Kit_DsdNtk_t_, ptr %49, i32 0, i32 3
  %51 = load i16, ptr %50, align 2, !tbaa !60
  %52 = zext i16 %51 to i32
  %53 = call i32 @Abc_LitIsCompl(i32 noundef %52)
  %54 = icmp ne i32 %53, 0
  br i1 %54, label %55, label %62

55:                                               ; preds = %39
  %56 = load ptr, ptr %7, align 8, !tbaa !25
  %57 = load ptr, ptr %7, align 8, !tbaa !25
  %58 = load ptr, ptr %5, align 8, !tbaa !37
  %59 = getelementptr inbounds nuw %struct.Kit_DsdNtk_t_, ptr %58, i32 0, i32 0
  %60 = load i16, ptr %59, align 8, !tbaa !41
  %61 = zext i16 %60 to i32
  call void @Kit_TruthNot(ptr noundef %56, ptr noundef %57, i32 noundef %61)
  br label %62

62:                                               ; preds = %55, %39
  %63 = load ptr, ptr %7, align 8, !tbaa !25
  call void @llvm.lifetime.end.p0(i64 4, ptr %8) #9
  call void @llvm.lifetime.end.p0(i64 8, ptr %7) #9
  ret ptr %63
}