; Function Attrs: nounwind uwtable
define ptr @Kit_DsdTruthComputeOne(ptr noundef %0, ptr noundef %1, i32 noundef %2) local_unnamed_addr #0 {
  %.not = icmp eq i32 %2, 0
  %.pre28 = load i16, ptr %1, align 8, !tbaa !34
  br i1 %.not, label %Kit_DsdGetSupports.exit, label %4

4:                                                ; preds = %3
  %5 = getelementptr inbounds nuw i8, ptr %1, i64 4
  %6 = load i16, ptr %5, align 4, !tbaa !38
  %7 = zext i16 %6 to i64
  %8 = shl nuw nsw i64 %7, 2
  %9 = tail call noalias ptr @malloc(i64 noundef %8) #26
  %10 = getelementptr inbounds nuw i8, ptr %1, i64 16
  store ptr %9, ptr %10, align 8, !tbaa !45
  %11 = getelementptr inbounds nuw i8, ptr %1, i64 6
  %12 = load i16, ptr %11, align 2, !tbaa !51
  %13 = lshr i16 %12, 1
  %14 = icmp ult i16 %13, %.pre28
  br i1 %14, label %Kit_DsdNtkRoot.exit.i, label %15

15:                                               ; preds = %4
  %16 = getelementptr inbounds nuw i8, ptr %1, i64 24
  %17 = load ptr, ptr %16, align 8, !tbaa !40
  %narrow.i.i = sub nuw nsw i16 %13, %.pre28
  %18 = zext nneg i16 %narrow.i.i to i64
  %19 = getelementptr inbounds nuw ptr, ptr %17, i64 %18
  %20 = load ptr, ptr %19, align 8, !tbaa !41
  br label %Kit_DsdNtkRoot.exit.i

Kit_DsdNtkRoot.exit.i:                            ; preds = %15, %4
  %21 = phi ptr [ %20, %15 ], [ null, %4 ]
  %22 = load i32, ptr %21, align 4
  %23 = and i32 %22, 448
  %24 = icmp eq i32 %23, 64
  br i1 %24, label %25, label %26

25:                                               ; preds = %Kit_DsdNtkRoot.exit.i
  store i32 0, ptr %9, align 4, !tbaa !20
  %.pre.i = load i32, ptr %21, align 4
  br label %26

26:                                               ; preds = %25, %Kit_DsdNtkRoot.exit.i
  %27 = phi i32 [ %.pre.i, %25 ], [ %22, %Kit_DsdNtkRoot.exit.i ]
  %28 = and i32 %27, 448
  %29 = icmp eq i32 %28, 128
  br i1 %29, label %30, label %44

30:                                               ; preds = %26
  %31 = getelementptr inbounds nuw i8, ptr %21, i64 4
  %32 = load i16, ptr %31, align 4, !tbaa !49
  %33 = lshr i16 %32, 1
  %34 = zext nneg i16 %33 to i32
  %.not.i.i = icmp eq ptr %9, null
  br i1 %.not.i.i, label %Kit_DsdLitSupport.exit.i, label %35

35:                                               ; preds = %30
  %36 = icmp ult i16 %33, %.pre28
  br i1 %36, label %37, label %39

37:                                               ; preds = %35
  %38 = shl nuw i32 1, %34
  br label %Kit_DsdLitSupport.exit.i

39:                                               ; preds = %35
  %narrow.i = sub nuw nsw i16 %33, %.pre28
  %40 = zext nneg i16 %narrow.i to i64
  %41 = getelementptr inbounds nuw i32, ptr %9, i64 %40
  %42 = load i32, ptr %41, align 4, !tbaa !20
  br label %Kit_DsdLitSupport.exit.i

Kit_DsdLitSupport.exit.i:                         ; preds = %39, %37, %30
  %43 = phi i32 [ %38, %37 ], [ %42, %39 ], [ 0, %30 ]
  store i32 %43, ptr %9, align 4, !tbaa !20
  br label %Kit_DsdGetSupports.exit

44:                                               ; preds = %26
  %45 = zext i16 %12 to i32
  %46 = tail call i32 @Kit_DsdGetSupports_rec(ptr noundef nonnull %1, i32 noundef %45)
  %.pre = load i16, ptr %1, align 8, !tbaa !34
  br label %Kit_DsdGetSupports.exit

Kit_DsdGetSupports.exit:                          ; preds = %44, %Kit_DsdLitSupport.exit.i, %3
  %47 = phi i16 [ %.pre, %44 ], [ %.pre28, %Kit_DsdLitSupport.exit.i ], [ %.pre28, %3 ]
  %.not26 = icmp eq i16 %47, 0
  br i1 %.not26, label %._crit_edge, label %.lr.ph

.lr.ph:                                           ; preds = %Kit_DsdGetSupports.exit
  %48 = getelementptr inbounds nuw i8, ptr %0, i64 16
  %49 = load ptr, ptr %48, align 8, !tbaa !25
  %50 = getelementptr i8, ptr %49, i64 8
  %.val19 = load ptr, ptr %50, align 8, !tbaa !19
  %51 = getelementptr inbounds nuw i8, ptr %0, i64 8
  %52 = load ptr, ptr %51, align 8, !tbaa !24
  %53 = getelementptr i8, ptr %52, i64 8
  %.val = load ptr, ptr %53, align 8, !tbaa !19
  %wide.trip.count = zext i16 %47 to i64
  br label %54

54:                                               ; preds = %.lr.ph, %Kit_TruthCopy.exit
  %indvars.iv = phi i64 [ 0, %.lr.ph ], [ %indvars.iv.next, %Kit_TruthCopy.exit ]
  %55 = getelementptr inbounds nuw ptr, ptr %.val19, i64 %indvars.iv
  %56 = load ptr, ptr %55, align 8, !tbaa !13
  %57 = getelementptr inbounds nuw ptr, ptr %.val, i64 %indvars.iv
  %58 = load ptr, ptr %57, align 8, !tbaa !13
  %59 = load i32, ptr %0, align 8, !tbaa !3
  %60 = icmp slt i32 %59, 6
  %61 = add nsw i32 %59, -5
  %62 = shl nuw i32 1, %61
  %spec.select.i = select i1 %60, i32 1, i32 %62
  %63 = icmp sgt i32 %spec.select.i, 0
  br i1 %63, label %select.unfold.preheader.i, label %Kit_TruthCopy.exit

select.unfold.preheader.i:                        ; preds = %54
  %64 = zext nneg i32 %spec.select.i to i64
  br label %select.unfold.i

select.unfold.i:                                  ; preds = %select.unfold.i, %select.unfold.preheader.i
  %indvars.iv.i = phi i64 [ %64, %select.unfold.preheader.i ], [ %indvars.iv.next.i, %select.unfold.i ]
  %indvars.iv.next.i = add nsw i64 %indvars.iv.i, -1
  %65 = getelementptr inbounds nuw i32, ptr %58, i64 %indvars.iv.next.i
  %66 = load i32, ptr %65, align 4, !tbaa !20
  %67 = getelementptr inbounds nuw i32, ptr %56, i64 %indvars.iv.next.i
  store i32 %66, ptr %67, align 4, !tbaa !20
  %68 = icmp samesign ugt i64 %indvars.iv.i, 1
  br i1 %68, label %select.unfold.i, label %Kit_TruthCopy.exit, !llvm.loop !56

Kit_TruthCopy.exit:                               ; preds = %select.unfold.i, %54
  %indvars.iv.next = add nuw nsw i64 %indvars.iv, 1
  %exitcond.not = icmp eq i64 %indvars.iv.next, %wide.trip.count
  br i1 %exitcond.not, label %._crit_edge, label %54, !llvm.loop !74

._crit_edge:                                      ; preds = %Kit_TruthCopy.exit, %Kit_DsdGetSupports.exit
  %69 = getelementptr inbounds nuw i8, ptr %1, i64 6
  %70 = load i16, ptr %69, align 2, !tbaa !51
  %71 = lshr i16 %70, 1
  %72 = zext nneg i16 %71 to i32
  %73 = tail call ptr @Kit_DsdTruthComputeNodeOne_rec(ptr noundef %0, ptr noundef nonnull %1, i32 noundef %72, i32 noundef %2)
  %74 = load i16, ptr %69, align 2, !tbaa !51
  %75 = and i16 %74, 1
  %.not18 = icmp eq i16 %75, 0
  br i1 %.not18, label %Kit_TruthNot.exit, label %76

76:                                               ; preds = %._crit_edge
  %77 = load i16, ptr %1, align 8, !tbaa !34
  %78 = zext i16 %77 to i32
  %79 = icmp ult i16 %77, 6
  %80 = add nsw i32 %78, -5
  %81 = shl nuw i32 1, %80
  %spec.select.i20 = select i1 %79, i32 1, i32 %81
  %82 = icmp sgt i32 %spec.select.i20, 0
  br i1 %82, label %select.unfold.preheader.i21, label %Kit_TruthNot.exit

select.unfold.preheader.i21:                      ; preds = %76
  %83 = zext nneg i32 %spec.select.i20 to i64
  br label %select.unfold.i22

select.unfold.i22:                                ; preds = %select.unfold.i22, %select.unfold.preheader.i21
  %indvars.iv.i23 = phi i64 [ %83, %select.unfold.preheader.i21 ], [ %indvars.iv.next.i24, %select.unfold.i22 ]
  %indvars.iv.next.i24 = add nsw i64 %indvars.iv.i23, -1
  %84 = getelementptr inbounds nuw i32, ptr %73, i64 %indvars.iv.next.i24
  %85 = load i32, ptr %84, align 4, !tbaa !20
  %86 = xor i32 %85, -1
  store i32 %86, ptr %84, align 4, !tbaa !20
  %87 = icmp samesign ugt i64 %indvars.iv.i23, 1
  br i1 %87, label %select.unfold.i22, label %Kit_TruthNot.exit, !llvm.loop !58

Kit_TruthNot.exit:                                ; preds = %select.unfold.i22, %76, %._crit_edge
  ret ptr %73
}